(dp0
I690
(dp1
I1984
(dp2
sI1985
(dp3
sI1986
(dp4
sI1987
(dp5
sI1988
(dp6
sI1989
(dp7
sI1990
(dp8
sI1991
(dp9
sI1992
(dp10
sI1993
(dp11
sI1994
(dp12
sI1995
(dp13
sI1996
(dp14
sI1997
(dp15
sI1998
(dp16
sI1999
(dp17
sI1980
(dp18
sI1981
(dp19
sI1982
(dp20
sI1983
(dp21
ssI691
(dp22
I1984
(dp23
sI1985
(dp24
sI1986
(dp25
sI1987
(dp26
sI1988
(dp27
sI1989
(dp28
sI1990
(dp29
sI1991
(dp30
sI1992
(dp31
sI1993
(dp32
sI1994
(dp33
sI1995
(dp34
sI1996
(dp35
sI1997
(dp36
sI1998
(dp37
sI1999
(dp38
sI1980
(dp39
sI1981
(dp40
sI1982
(dp41
sI1983
(dp42
ssI692
(dp43
I1984
(dp44
sI1985
(dp45
sI1986
(dp46
sI1987
(dp47
sI1988
(dp48
sI1989
(dp49
sI1990
(dp50
sI1991
(dp51
sI1992
(dp52
sI1993
(dp53
sI1994
(dp54
sI1995
(dp55
sI1996
(dp56
sI1997
(dp57
sI1998
(dp58
sI1999
(dp59
sI1980
(dp60
sI1981
(dp61
sI1982
(dp62
sI1983
(dp63
ssI693
(dp64
I1984
(dp65
sI1985
(dp66
sI1986
(dp67
sI1987
(dp68
sI1988
(dp69
sI1989
(dp70
sI1990
(dp71
sI1991
(dp72
sI1992
(dp73
sI1993
(dp74
sI1994
(dp75
sI1995
(dp76
sI1996
(dp77
sI1997
(dp78
sI1998
(dp79
sI1999
(dp80
sI1980
(dp81
sI1981
(dp82
sI1982
(dp83
sI1983
(dp84
ssI694
(dp85
I1984
(dp86
sI1985
(dp87
sI1986
(dp88
sI1987
(dp89
sI1988
(dp90
sI1989
(dp91
sI1990
(dp92
sI1991
(dp93
sI1992
(dp94
sI1993
(dp95
sI1994
(dp96
sI1995
(dp97
sI1996
(dp98
sI1997
(dp99
sI1998
(dp100
sI1999
(dp101
sI1980
(dp102
sI1981
(dp103
sI1982
(dp104
sI1983
(dp105
ssI695
(dp106
I1984
(dp107
sI1985
(dp108
sI1986
(dp109
sI1987
(dp110
sI1988
(dp111
sI1989
(dp112
sI1990
(dp113
sI1991
(dp114
sI1992
(dp115
sI1993
(dp116
sI1994
(dp117
sI1995
(dp118
sI1996
(dp119
sI1997
(dp120
sI1998
(dp121
sI1999
(dp122
sI1980
(dp123
sI1981
(dp124
sI1982
(dp125
sI1983
(dp126
ssI696
(dp127
I1984
(dp128
sI1985
(dp129
sI1986
(dp130
sI1987
(dp131
sI1988
(dp132
sI1989
(dp133
sI1990
(dp134
sI1991
(dp135
sI1992
(dp136
sI1993
(dp137
sI1994
(dp138
sI1995
(dp139
sI1996
(dp140
sI1997
(dp141
sI1998
(dp142
sI1999
(dp143
sI1980
(dp144
sI1981
(dp145
sI1982
(dp146
sI1983
(dp147
ssI697
(dp148
I1984
(dp149
sI1985
(dp150
sI1986
(dp151
sI1987
(dp152
sI1988
(dp153
sI1989
(dp154
sI1990
(dp155
sI1991
(dp156
sI1992
(dp157
sI1993
(dp158
sI1994
(dp159
sI1995
(dp160
sI1996
(dp161
sI1997
(dp162
sI1998
(dp163
sI1999
(dp164
sI1980
(dp165
sI1981
(dp166
sI1982
(dp167
sI1983
(dp168
ssI698
(dp169
I1984
(dp170
sI1985
(dp171
sI1986
(dp172
sI1987
(dp173
sI1988
(dp174
sI1989
(dp175
sI1990
(dp176
sI1991
(dp177
sI1992
(dp178
sI1993
(dp179
sI1994
(dp180
sI1995
(dp181
sI1996
(dp182
sI1997
(dp183
sI1998
(dp184
sI1999
(dp185
sI1980
(dp186
sI1981
(dp187
sI1982
(dp188
sI1983
(dp189
ssI699
(dp190
I1984
(dp191
sI1985
(dp192
sI1986
(dp193
sI1987
(dp194
sI1988
(dp195
sI1989
(dp196
sI1990
(dp197
sI1991
(dp198
sI1992
(dp199
sI1993
(dp200
sI1994
(dp201
sI1995
(dp202
sI1996
(dp203
sI1997
(dp204
sI1998
(dp205
sI1999
(dp206
sI1980
(dp207
sI1981
(dp208
sI1982
(dp209
sI1983
(dp210
ss.